target datalayout = "e-m:e-p270:32:32-p271:32:32-p272:64:64-i64:64-i128:128-f80:128-n8:16:32:64-S128"
target triple = "x86_64-pc-linux-gnu"

%"class.std::__shared_count" = type { ptr }
%"struct.duckdb::roaring::ContainerMetadataCollection" = type { %"class.duckdb::vector.73", %"class.duckdb::vector.73", %"class.duckdb::vector.73", i64, i64, i64 }
%"class.duckdb::vector.73" = type { %"class.std::vector.74" }
%"class.std::vector.74" = type { %"struct.std::_Vector_base.75" }
%"struct.std::_Vector_base.75" = type { %"struct.std::_Vector_base<unsigned char, std::allocator<unsigned char>>::_Vector_impl" }
%"struct.std::_Vector_base<unsigned char, std::allocator<unsigned char>>::_Vector_impl" = type { %"struct.std::_Vector_base<unsigned char, std::allocator<unsigned char>>::_Vector_impl_data" }
%"struct.std::_Vector_base<unsigned char, std::allocator<unsigned char>>::_Vector_impl_data" = type { ptr, ptr, ptr }
%"class.duckdb::vector.79" = type { %"class.std::vector.80" }
%"class.std::vector.80" = type { %"struct.std::_Vector_base.81" }
%"struct.std::_Vector_base.81" = type { %"struct.std::_Vector_base<duckdb::roaring::ContainerMetadata, std::allocator<duckdb::roaring::ContainerMetadata>>::_Vector_impl" }
%"struct.std::_Vector_base<duckdb::roaring::ContainerMetadata, std::allocator<duckdb::roaring::ContainerMetadata>>::_Vector_impl" = type { %"struct.std::_Vector_base<duckdb::roaring::ContainerMetadata, std::allocator<duckdb::roaring::ContainerMetadata>>::_Vector_impl_data" }
%"struct.std::_Vector_base<duckdb::roaring::ContainerMetadata, std::allocator<duckdb::roaring::ContainerMetadata>>::_Vector_impl_data" = type { ptr, ptr, ptr }
%"class.duckdb::BufferHandle" = type { %"class.duckdb::shared_ptr.120", %"class.duckdb::optional_ptr.124" }
%"class.duckdb::shared_ptr.120" = type { %"class.std::shared_ptr.121" }
%"class.std::shared_ptr.121" = type { %"class.std::__shared_ptr.122" }
%"class.std::__shared_ptr.122" = type { ptr, %"class.std::__shared_count" }
%"class.duckdb::optional_ptr.124" = type { ptr }
%"struct.duckdb::roaring::RoaringScanState" = type { %"struct.duckdb::SegmentScanState", %"class.duckdb::BufferHandle", ptr, %"class.duckdb::unique_ptr.182", ptr, %"struct.duckdb::roaring::ContainerMetadataCollection", %"class.duckdb::vector.79", %"class.duckdb::vector.191" }
%"struct.duckdb::SegmentScanState" = type { ptr }
%"class.duckdb::unique_ptr.182" = type { %"class.std::unique_ptr.183" }
%"class.std::unique_ptr.183" = type { %"struct.std::__uniq_ptr_data.184" }
%"struct.std::__uniq_ptr_data.184" = type { %"class.std::__uniq_ptr_impl.185" }
%"class.std::__uniq_ptr_impl.185" = type { %"class.std::tuple.186" }
%"class.std::tuple.186" = type { %"struct.std::_Tuple_impl.187" }
%"struct.std::_Tuple_impl.187" = type { %"struct.std::_Head_base.190" }
%"struct.std::_Head_base.190" = type { ptr }
%"class.duckdb::vector.191" = type { %"class.std::vector.192" }
%"class.std::vector.192" = type { %"struct.std::_Vector_base.193" }
%"struct.std::_Vector_base.193" = type { %"struct.std::_Vector_base<unsigned long, std::allocator<unsigned long>>::_Vector_impl" }
%"struct.std::_Vector_base<unsigned long, std::allocator<unsigned long>>::_Vector_impl" = type { %"struct.std::_Vector_base<unsigned long, std::allocator<unsigned long>>::_Vector_impl_data" }
%"struct.std::_Vector_base<unsigned long, std::allocator<unsigned long>>::_Vector_impl_data" = type { ptr, ptr, ptr }

; Function Attrs: mustprogress uwtable
define noundef ptr @_ZN6duckdb7roaring16RoaringScanState23GetStartOfContainerDataEm(ptr noundef nonnull align 8 dereferenceable(200) %0, i64 noundef %1) #0 align 2 {
  %3 = alloca ptr, align 8
  %4 = alloca i64, align 8
  store ptr %0, ptr %3, align 8, !tbaa !164
  store i64 %1, ptr %4, align 8, !tbaa !8
  %5 = load ptr, ptr %3, align 8
  %6 = getelementptr inbounds nuw %"struct.duckdb::roaring::RoaringScanState", ptr %5, i32 0, i32 4
  %7 = load ptr, ptr %6, align 8, !tbaa !482
  %8 = getelementptr inbounds nuw %"struct.duckdb::roaring::RoaringScanState", ptr %5, i32 0, i32 7
  %9 = load i64, ptr %4, align 8, !tbaa !8
  %10 = call noundef nonnull align 8 dereferenceable(8) ptr @_ZN6duckdb6vectorImLb1EEixEm(ptr noundef nonnull align 8 dereferenceable(24) %8, i64 noundef %9)
  %11 = load i64, ptr %10, align 8, !tbaa !8
  %12 = getelementptr inbounds nuw i8, ptr %7, i64 %11
  ret ptr %12
}