; Function Attrs: mustprogress uwtable
define noundef ptr @_ZN6duckdb7roaring16RoaringScanState23GetStartOfContainerDataEm(ptr noundef nonnull align 8 dereferenceable(200) %0, i64 noundef %1) local_unnamed_addr #0 align 2 {
  %3 = getelementptr inbounds nuw i8, ptr %0, i64 48
  %4 = load ptr, ptr %3, align 8, !tbaa !204
  %5 = getelementptr inbounds nuw i8, ptr %0, i64 176
  %6 = tail call noundef nonnull align 8 dereferenceable(8) ptr @_ZN6duckdb6vectorImLb1EEixEm(ptr noundef nonnull align 8 dereferenceable(24) %5, i64 noundef %1)
  %7 = load i64, ptr %6, align 8, !tbaa !22
  %8 = getelementptr inbounds nuw i8, ptr %4, i64 %7
  ret ptr %8
}